target datalayout = "e-m:e-p270:32:32-p271:32:32-p272:64:64-i64:64-i128:128-f80:128-n8:16:32:64-S128"
target triple = "x86_64-unknown-linux-gnu"

%"class.absl::lts_20230802::Span" = type { ptr, i64 }
%"class.absl::lts_20230802::Span.10" = type { ptr, i64 }

; Function Attrs: mustprogress nounwind uwtable
define linkonce_odr noundef i64 @_ZNK4absl12lts_202308024SpanIhE4sizeEv(ptr noundef nonnull align 8 dereferenceable(16) %this) #1 comdat align 2 {
entry:
  %this.addr = alloca ptr, align 8
  store ptr %this, ptr %this.addr, align 8
  %this1 = load ptr, ptr %this.addr, align 8
  %len_ = getelementptr inbounds %"class.absl::lts_20230802::Span.10", ptr %this1, i32 0, i32 1
  %0 = load i64, ptr %len_, align 8
  ret i64 %0
}

; Function Attrs: mustprogress nounwind uwtable
define linkonce_odr noundef ptr @_ZNK4absl12lts_202308024SpanIhE4dataEv(ptr noundef nonnull align 8 dereferenceable(16) %this) #1 comdat align 2 {
entry:
  %this.addr = alloca ptr, align 8
  store ptr %this, ptr %this.addr, align 8
  %this1 = load ptr, ptr %this.addr, align 8
  %ptr_ = getelementptr inbounds %"class.absl::lts_20230802::Span.10", ptr %this1, i32 0, i32 0
  %0 = load ptr, ptr %ptr_, align 8
  ret ptr %0
}

; Function Attrs: mustprogress nounwind uwtable
define linkonce_odr noundef i64 @_ZNK4absl12lts_202308024SpanIKhE4sizeEv(ptr noundef nonnull align 8 dereferenceable(16) %this) #1 comdat align 2 {
entry:
  %this.addr = alloca ptr, align 8
  store ptr %this, ptr %this.addr, align 8
  %this1 = load ptr, ptr %this.addr, align 8
  %len_ = getelementptr inbounds %"class.absl::lts_20230802::Span", ptr %this1, i32 0, i32 1
  %0 = load i64, ptr %len_, align 8
  ret i64 %0
}

; Function Attrs: mustprogress nounwind uwtable
define linkonce_odr noundef ptr @_ZNK4absl12lts_202308024SpanIKhE4dataEv(ptr noundef nonnull align 8 dereferenceable(16) %this) #1 comdat align 2 {
entry:
  %this.addr = alloca ptr, align 8
  store ptr %this, ptr %this.addr, align 8
  %this1 = load ptr, ptr %this.addr, align 8
  %ptr_ = getelementptr inbounds %"class.absl::lts_20230802::Span", ptr %this1, i32 0, i32 0
  %0 = load ptr, ptr %ptr_, align 8
  ret ptr %0
}

; Function Attrs: mustprogress uwtable
define internal noundef i32 @_ZL23aes_gcm_derive_aead_keyN4absl12lts_202308024SpanIhEEPhNS1_IKhEES5_(ptr %dst.coerce0, i64 %dst.coerce1, ptr noundef %buf, ptr %kdf_key.coerce0, i64 %kdf_key.coerce1, ptr noundef byval(%"class.absl::lts_20230802::Span") align 8 %kdf_counter) #0 {
entry:
  %retval = alloca i32, align 4
  %dst = alloca %"class.absl::lts_20230802::Span.10", align 8
  %kdf_key = alloca %"class.absl::lts_20230802::Span", align 8
  %buf.addr = alloca ptr, align 8
  %ctr = alloca i8, align 1
  %hmac = alloca ptr, align 8
  %0 = getelementptr inbounds { ptr, i64 }, ptr %dst, i32 0, i32 0
  store ptr %dst.coerce0, ptr %0, align 8
  %1 = getelementptr inbounds { ptr, i64 }, ptr %dst, i32 0, i32 1
  store i64 %dst.coerce1, ptr %1, align 8
  %2 = getelementptr inbounds { ptr, i64 }, ptr %kdf_key, i32 0, i32 0
  store ptr %kdf_key.coerce0, ptr %2, align 8
  %3 = getelementptr inbounds { ptr, i64 }, ptr %kdf_key, i32 0, i32 1
  store i64 %kdf_key.coerce1, ptr %3, align 8
  store ptr %buf, ptr %buf.addr, align 8
  store i8 1, ptr %ctr, align 1
  %call = call ptr @HMAC_CTX_new()
  store ptr %call, ptr %hmac, align 8
  %4 = load ptr, ptr %hmac, align 8
  %cmp = icmp eq ptr %4, null
  br i1 %cmp, label %if.then, label %if.end

if.then:                                          ; preds = %entry
  store i32 13, ptr %retval, align 4
  br label %return

if.end:                                           ; preds = %entry
  %5 = load ptr, ptr %hmac, align 8
  %call1 = call noundef ptr @_ZNK4absl12lts_202308024SpanIKhE4dataEv(ptr noundef nonnull align 8 dereferenceable(16) %kdf_key) #12
  %call2 = call noundef i64 @_ZNK4absl12lts_202308024SpanIKhE4sizeEv(ptr noundef nonnull align 8 dereferenceable(16) %kdf_key) #12
  %call3 = call ptr @EVP_sha256()
  %call4 = call i32 @HMAC_Init_ex(ptr noundef %5, ptr noundef %call1, i64 noundef %call2, ptr noundef %call3, ptr noundef null)
  %tobool = icmp ne i32 %call4, 0
  br i1 %tobool, label %lor.lhs.false, label %if.then15

lor.lhs.false:                                    ; preds = %if.end
  %6 = load ptr, ptr %hmac, align 8
  %call5 = call noundef ptr @_ZNK4absl12lts_202308024SpanIKhE4dataEv(ptr noundef nonnull align 8 dereferenceable(16) %kdf_counter) #12
  %call6 = call noundef i64 @_ZNK4absl12lts_202308024SpanIKhE4sizeEv(ptr noundef nonnull align 8 dereferenceable(16) %kdf_counter) #12
  %call7 = call i32 @HMAC_Update(ptr noundef %6, ptr noundef %call5, i64 noundef %call6)
  %tobool8 = icmp ne i32 %call7, 0
  br i1 %tobool8, label %lor.lhs.false9, label %if.then15

lor.lhs.false9:                                   ; preds = %lor.lhs.false
  %7 = load ptr, ptr %hmac, align 8
  %call10 = call i32 @HMAC_Update(ptr noundef %7, ptr noundef %ctr, i64 noundef 1)
  %tobool11 = icmp ne i32 %call10, 0
  br i1 %tobool11, label %lor.lhs.false12, label %if.then15

lor.lhs.false12:                                  ; preds = %lor.lhs.false9
  %8 = load ptr, ptr %hmac, align 8
  %9 = load ptr, ptr %buf.addr, align 8
  %call13 = call i32 @HMAC_Final(ptr noundef %8, ptr noundef %9, ptr noundef null)
  %tobool14 = icmp ne i32 %call13, 0
  br i1 %tobool14, label %if.end16, label %if.then15

if.then15:                                        ; preds = %lor.lhs.false12, %lor.lhs.false9, %lor.lhs.false, %if.end
  %10 = load ptr, ptr %hmac, align 8
  call void @HMAC_CTX_free(ptr noundef %10)
  store i32 13, ptr %retval, align 4
  br label %return

if.end16:                                         ; preds = %lor.lhs.false12
  %11 = load ptr, ptr %hmac, align 8
  call void @HMAC_CTX_free(ptr noundef %11)
  %call17 = call noundef ptr @_ZNK4absl12lts_202308024SpanIhE4dataEv(ptr noundef nonnull align 8 dereferenceable(16) %dst) #12
  %12 = load ptr, ptr %buf.addr, align 8
  %call18 = call noundef i64 @_ZNK4absl12lts_202308024SpanIhE4sizeEv(ptr noundef nonnull align 8 dereferenceable(16) %dst) #12
  call void @llvm.memcpy.p0.p0.i64(ptr align 1 %call17, ptr align 1 %12, i64 %call18, i1 false)
  store i32 0, ptr %retval, align 4
  br label %return

return:                                           ; preds = %if.end16, %if.then15, %if.then
  %13 = load i32, ptr %retval, align 4
  ret i32 %13
}