; Function Attrs: mustprogress uwtable
define internal fastcc noundef i32 @_ZL23aes_gcm_derive_aead_keyN4absl12lts_202308024SpanIhEEPhNS1_IKhEES5_(ptr nocapture writeonly %dst.coerce0, i64 %dst.coerce1, ptr noundef %buf, ptr %kdf_key.coerce0, i64 %kdf_key.coerce1, ptr %kdf_counter.0.val, i64 %kdf_counter.8.val) unnamed_addr #0 {
entry:
  %ctr = alloca i8, align 1
  store i8 1, ptr %ctr, align 1
  %call = tail call ptr @HMAC_CTX_new()
  %cmp = icmp eq ptr %call, null
  br i1 %cmp, label %return, label %if.end

if.end:                                           ; preds = %entry
  %call3 = tail call ptr @EVP_sha256()
  %call4 = tail call i32 @HMAC_Init_ex(ptr noundef nonnull %call, ptr noundef %kdf_key.coerce0, i64 noundef %kdf_key.coerce1, ptr noundef %call3, ptr noundef null)
  %tobool.not = icmp eq i32 %call4, 0
  br i1 %tobool.not, label %if.then15, label %lor.lhs.false

lor.lhs.false:                                    ; preds = %if.end
  %call7 = tail call i32 @HMAC_Update(ptr noundef nonnull %call, ptr noundef %kdf_counter.0.val, i64 noundef %kdf_counter.8.val)
  %tobool8.not = icmp eq i32 %call7, 0
  br i1 %tobool8.not, label %if.then15, label %lor.lhs.false9

lor.lhs.false9:                                   ; preds = %lor.lhs.false
  %call10 = call i32 @HMAC_Update(ptr noundef nonnull %call, ptr noundef nonnull %ctr, i64 noundef 1)
  %tobool11.not = icmp eq i32 %call10, 0
  br i1 %tobool11.not, label %if.then15, label %lor.lhs.false12

lor.lhs.false12:                                  ; preds = %lor.lhs.false9
  %call13 = call i32 @HMAC_Final(ptr noundef nonnull %call, ptr noundef %buf, ptr noundef null)
  %tobool14.not = icmp eq i32 %call13, 0
  br i1 %tobool14.not, label %if.then15, label %if.end16

if.then15:                                        ; preds = %lor.lhs.false12, %lor.lhs.false9, %lor.lhs.false, %if.end
  call void @HMAC_CTX_free(ptr noundef nonnull %call)
  br label %return

if.end16:                                         ; preds = %lor.lhs.false12
  call void @HMAC_CTX_free(ptr noundef nonnull %call)
  call void @llvm.memcpy.p0.p0.i64(ptr align 1 %dst.coerce0, ptr align 1 %buf, i64 %dst.coerce1, i1 false)
  br label %return

return:                                           ; preds = %entry, %if.end16, %if.then15
  %retval.0 = phi i32 [ 0, %if.end16 ], [ 13, %if.then15 ], [ 13, %entry ]
  ret i32 %retval.0
}